; ModuleID = '62/1461.c'
source_filename = "62/1461.c"
target datalayout = "e-m:e-p270:32:32-p271:32:32-p272:64:64-i64:64-f80:128-n8:16:32:64-S128"
target triple = "x86_64-pc-linux-gnu"

@.str = private unnamed_addr constant [3 x i8] c"%c\00", align 1
@.str.1 = private unnamed_addr constant [2 x i8] c" \00", align 1

; Function Attrs: noinline nounwind uwtable
define dso_local void @main() #0 {
  %1 = alloca i8*, align 8
  %2 = alloca i8*, align 8
  %3 = call noalias i8* @malloc(i64 100) #3
  store i8* %3, i8** %1, align 8
  %4 = load i8*, i8** %1, align 8
  %5 = call i32 (i8*, ...) bitcast (i32 (...)* @gets to i32 (i8*, ...)*)(i8* %4)
  %6 = load i8*, i8** %1, align 8
  store i8* %6, i8** %2, align 8
  br label %7

7:                                                ; preds = %32, %0
  %8 = load i8*, i8** %2, align 8
  %9 = load i8, i8* %8, align 1
  %10 = sext i8 %9 to i32
  %11 = icmp ne i32 %10, 0
  br i1 %11, label %12, label %35

12:                                               ; preds = %7
  %13 = load i8*, i8** %2, align 8
  %14 = load i8, i8* %13, align 1
  %15 = sext i8 %14 to i32
  %16 = icmp ne i32 %15, 32
  br i1 %16, label %17, label %22

17:                                               ; preds = %12
  %18 = load i8*, i8** %2, align 8
  %19 = load i8, i8* %18, align 1
  %20 = sext i8 %19 to i32
  %21 = call i32 (i8*, ...) @printf(i8* getelementptr inbounds ([3 x i8], [3 x i8]* @.str, i64 0, i64 0), i32 %20)
  br label %31

22:                                               ; preds = %12
  %23 = load i8*, i8** %2, align 8
  %24 = getelementptr inbounds i8, i8* %23, i64 -1
  %25 = load i8, i8* %24, align 1
  %26 = sext i8 %25 to i32
  %27 = icmp ne i32 %26, 32
  br i1 %27, label %28, label %30

28:                                               ; preds = %22
  %29 = call i32 (i8*, ...) @printf(i8* getelementptr inbounds ([2 x i8], [2 x i8]* @.str.1, i64 0, i64 0))
  br label %30

30:                                               ; preds = %28, %22
  br label %31

31:                                               ; preds = %30, %17
  br label %32

32:                                               ; preds = %31
  %33 = load i8*, i8** %2, align 8
  %34 = getelementptr inbounds i8, i8* %33, i32 1
  store i8* %34, i8** %2, align 8
  br label %7

35:                                               ; preds = %7
  ret void
}

; Function Attrs: nounwind
declare dso_local noalias i8* @malloc(i64) #1

declare dso_local i32 @gets(...) #2

declare dso_local i32 @printf(i8*, ...) #2


!llvm.module.flags = !{!0}
!llvm.ident = !{!1}

!0 = !{i32 1, !"wchar_size", i32 4}
!1 = !{!"clang version 10.0.0-4ubuntu1 "}
